target datalayout = "e-m:e-p270:32:32-p271:32:32-p272:64:64-i64:64-i128:128-f80:128-n8:16:32:64-S128"
target triple = "x86_64-pc-linux-gnu"

%struct.BrinDesc = type { ptr, ptr, ptr, ptr, i32, [0 x ptr] }
%struct.TupleDescData = type { i32, i32, i32, i32, ptr, [0 x %struct.CompactAttribute] }
%struct.CompactAttribute = type { i32, i16, i8, i8, i8, i8, i8, i8, i8 }
%struct.BrinMemTuple = type { i8, i8, i32, ptr, ptr, ptr, ptr, [0 x %struct.BrinValues] }
%struct.BrinValues = type { i16, i8, i8, ptr, i64, ptr, ptr }
%struct.BrinOpcInfo = type { i16, i8, ptr, [0 x ptr] }

; Function Attrs: inlinehint nounwind uwtable
define internal i64 @PointerGetDatum(ptr noundef %0) #3 {
  %2 = alloca ptr, align 8
  store ptr %0, ptr %2, align 8
  %3 = load ptr, ptr %2, align 8
  %4 = ptrtoint ptr %3 to i64
  ret i64 %4
}

; Function Attrs: nounwind uwtable
define dso_local ptr @brin_memtuple_initialize(ptr noundef %0, ptr noundef %1) #0 {
  %3 = alloca ptr, align 8
  %4 = alloca ptr, align 8
  %5 = alloca i32, align 4
  %6 = alloca ptr, align 8
  store ptr %0, ptr %3, align 8
  store ptr %1, ptr %4, align 8
  call void @llvm.lifetime.start.p0(i64 4, ptr %5) #7
  call void @llvm.lifetime.start.p0(i64 8, ptr %6) #7
  %7 = load ptr, ptr %3, align 8
  %8 = getelementptr inbounds nuw %struct.BrinMemTuple, ptr %7, i32 0, i32 3
  %9 = load ptr, ptr %8, align 8
  call void @MemoryContextReset(ptr noundef %9)
  %10 = load ptr, ptr %3, align 8
  %11 = load ptr, ptr %4, align 8
  %12 = getelementptr inbounds nuw %struct.BrinDesc, ptr %11, i32 0, i32 2
  %13 = load ptr, ptr %12, align 8
  %14 = getelementptr inbounds nuw %struct.TupleDescData, ptr %13, i32 0, i32 0
  %15 = load i32, ptr %14, align 8
  %16 = sext i32 %15 to i64
  %17 = mul i64 40, %16
  %18 = add i64 40, %17
  %19 = add i64 %18, 7
  %20 = and i64 %19, -8
  %21 = getelementptr inbounds nuw i8, ptr %10, i64 %20
  store ptr %21, ptr %6, align 8
  store i32 0, ptr %5, align 4
  br label %22

22:                                               ; preds = %93, %2
  %23 = load i32, ptr %5, align 4
  %24 = load ptr, ptr %4, align 8
  %25 = getelementptr inbounds nuw %struct.BrinDesc, ptr %24, i32 0, i32 2
  %26 = load ptr, ptr %25, align 8
  %27 = getelementptr inbounds nuw %struct.TupleDescData, ptr %26, i32 0, i32 0
  %28 = load i32, ptr %27, align 8
  %29 = icmp slt i32 %23, %28
  br i1 %29, label %30, label %96

30:                                               ; preds = %22
  %31 = load i32, ptr %5, align 4
  %32 = add i32 %31, 1
  %33 = trunc i32 %32 to i16
  %34 = load ptr, ptr %3, align 8
  %35 = getelementptr inbounds nuw %struct.BrinMemTuple, ptr %34, i32 0, i32 7
  %36 = load i32, ptr %5, align 4
  %37 = sext i32 %36 to i64
  %38 = getelementptr inbounds [0 x %struct.BrinValues], ptr %35, i64 0, i64 %37
  %39 = getelementptr inbounds nuw %struct.BrinValues, ptr %38, i32 0, i32 0
  store i16 %33, ptr %39, align 8
  %40 = load ptr, ptr %3, align 8
  %41 = getelementptr inbounds nuw %struct.BrinMemTuple, ptr %40, i32 0, i32 7
  %42 = load i32, ptr %5, align 4
  %43 = sext i32 %42 to i64
  %44 = getelementptr inbounds [0 x %struct.BrinValues], ptr %41, i64 0, i64 %43
  %45 = getelementptr inbounds nuw %struct.BrinValues, ptr %44, i32 0, i32 2
  store i8 1, ptr %45, align 1
  %46 = load ptr, ptr %3, align 8
  %47 = getelementptr inbounds nuw %struct.BrinMemTuple, ptr %46, i32 0, i32 7
  %48 = load i32, ptr %5, align 4
  %49 = sext i32 %48 to i64
  %50 = getelementptr inbounds [0 x %struct.BrinValues], ptr %47, i64 0, i64 %49
  %51 = getelementptr inbounds nuw %struct.BrinValues, ptr %50, i32 0, i32 1
  store i8 0, ptr %51, align 2
  %52 = load ptr, ptr %6, align 8
  %53 = load ptr, ptr %3, align 8
  %54 = getelementptr inbounds nuw %struct.BrinMemTuple, ptr %53, i32 0, i32 7
  %55 = load i32, ptr %5, align 4
  %56 = sext i32 %55 to i64
  %57 = getelementptr inbounds [0 x %struct.BrinValues], ptr %54, i64 0, i64 %56
  %58 = getelementptr inbounds nuw %struct.BrinValues, ptr %57, i32 0, i32 3
  store ptr %52, ptr %58, align 8
  %59 = call i64 @PointerGetDatum(ptr noundef null)
  %60 = load ptr, ptr %3, align 8
  %61 = getelementptr inbounds nuw %struct.BrinMemTuple, ptr %60, i32 0, i32 7
  %62 = load i32, ptr %5, align 4
  %63 = sext i32 %62 to i64
  %64 = getelementptr inbounds [0 x %struct.BrinValues], ptr %61, i64 0, i64 %63
  %65 = getelementptr inbounds nuw %struct.BrinValues, ptr %64, i32 0, i32 4
  store i64 %59, ptr %65, align 8
  %66 = load ptr, ptr %3, align 8
  %67 = getelementptr inbounds nuw %struct.BrinMemTuple, ptr %66, i32 0, i32 7
  %68 = load i32, ptr %5, align 4
  %69 = sext i32 %68 to i64
  %70 = getelementptr inbounds [0 x %struct.BrinValues], ptr %67, i64 0, i64 %69
  %71 = getelementptr inbounds nuw %struct.BrinValues, ptr %70, i32 0, i32 6
  store ptr null, ptr %71, align 8
  %72 = load ptr, ptr %3, align 8
  %73 = getelementptr inbounds nuw %struct.BrinMemTuple, ptr %72, i32 0, i32 3
  %74 = load ptr, ptr %73, align 8
  %75 = load ptr, ptr %3, align 8
  %76 = getelementptr inbounds nuw %struct.BrinMemTuple, ptr %75, i32 0, i32 7
  %77 = load i32, ptr %5, align 4
  %78 = sext i32 %77 to i64
  %79 = getelementptr inbounds [0 x %struct.BrinValues], ptr %76, i64 0, i64 %78
  %80 = getelementptr inbounds nuw %struct.BrinValues, ptr %79, i32 0, i32 5
  store ptr %74, ptr %80, align 8
  %81 = load ptr, ptr %4, align 8
  %82 = getelementptr inbounds nuw %struct.BrinDesc, ptr %81, i32 0, i32 5
  %83 = load i32, ptr %5, align 4
  %84 = sext i32 %83 to i64
  %85 = getelementptr inbounds [0 x ptr], ptr %82, i64 0, i64 %84
  %86 = load ptr, ptr %85, align 8
  %87 = getelementptr inbounds nuw %struct.BrinOpcInfo, ptr %86, i32 0, i32 0
  %88 = load i16, ptr %87, align 8
  %89 = zext i16 %88 to i64
  %90 = mul i64 8, %89
  %91 = load ptr, ptr %6, align 8
  %92 = getelementptr inbounds nuw i8, ptr %91, i64 %90
  store ptr %92, ptr %6, align 8
  br label %93

93:                                               ; preds = %30
  %94 = load i32, ptr %5, align 4
  %95 = add i32 %94, 1
  store i32 %95, ptr %5, align 4
  br label %22, !llvm.loop !16

96:                                               ; preds = %22
  %97 = load ptr, ptr %3, align 8
  %98 = getelementptr inbounds nuw %struct.BrinMemTuple, ptr %97, i32 0, i32 1
  store i8 1, ptr %98, align 1
  %99 = load ptr, ptr %3, align 8
  call void @llvm.lifetime.end.p0(i64 8, ptr %6) #7
  call void @llvm.lifetime.end.p0(i64 4, ptr %5) #7
  ret ptr %99
}