; Function Attrs: nounwind uwtable
define dso_local noundef ptr @brin_memtuple_initialize(ptr noundef returned %0, ptr noundef readonly captures(none) %1) local_unnamed_addr #0 {
  %3 = getelementptr inbounds nuw i8, ptr %0, i64 8
  %4 = load ptr, ptr %3, align 8
  tail call void @MemoryContextReset(ptr noundef %4) #9
  %5 = getelementptr inbounds nuw i8, ptr %1, i64 16
  %6 = load ptr, ptr %5, align 8
  %7 = load i32, ptr %6, align 8
  %8 = icmp sgt i32 %7, 0
  br i1 %8, label %.lr.ph, label %._crit_edge

.lr.ph:                                           ; preds = %2
  %9 = zext nneg i32 %7 to i64
  %10 = mul nuw nsw i64 %9, 40
  %11 = add nuw nsw i64 %10, 47
  %12 = and i64 %11, 274877906936
  %13 = getelementptr inbounds nuw i8, ptr %0, i64 %12
  %14 = getelementptr inbounds nuw i8, ptr %0, i64 40
  %15 = load ptr, ptr %3, align 8
  %16 = getelementptr inbounds nuw i8, ptr %1, i64 40
  br label %17

17:                                               ; preds = %.lr.ph, %17
  %indvars.iv = phi i64 [ 0, %.lr.ph ], [ %indvars.iv.next, %17 ]
  %.029 = phi ptr [ %13, %.lr.ph ], [ %31, %17 ]
  %indvars.iv.next = add nuw nsw i64 %indvars.iv, 1
  %18 = trunc i64 %indvars.iv.next to i16
  %19 = getelementptr inbounds nuw [0 x %struct.BrinValues], ptr %14, i64 0, i64 %indvars.iv
  store i16 %18, ptr %19, align 8
  %20 = getelementptr inbounds nuw i8, ptr %19, i64 3
  store i8 1, ptr %20, align 1
  %21 = getelementptr inbounds nuw i8, ptr %19, i64 2
  store i8 0, ptr %21, align 2
  %22 = getelementptr inbounds nuw i8, ptr %19, i64 8
  store ptr %.029, ptr %22, align 8
  %23 = getelementptr inbounds nuw i8, ptr %19, i64 16
  store i64 0, ptr %23, align 8
  %24 = getelementptr inbounds nuw i8, ptr %19, i64 32
  store ptr null, ptr %24, align 8
  %25 = getelementptr inbounds nuw i8, ptr %19, i64 24
  store ptr %15, ptr %25, align 8
  %26 = getelementptr inbounds nuw [0 x ptr], ptr %16, i64 0, i64 %indvars.iv
  %27 = load ptr, ptr %26, align 8
  %28 = load i16, ptr %27, align 8
  %29 = zext i16 %28 to i64
  %30 = shl nuw nsw i64 %29, 3
  %31 = getelementptr inbounds nuw i8, ptr %.029, i64 %30
  %32 = load ptr, ptr %5, align 8
  %33 = load i32, ptr %32, align 8
  %34 = sext i32 %33 to i64
  %35 = icmp slt i64 %indvars.iv.next, %34
  br i1 %35, label %17, label %._crit_edge, !llvm.loop !16

._crit_edge:                                      ; preds = %17, %2
  %36 = getelementptr inbounds nuw i8, ptr %0, i64 1
  store i8 1, ptr %36, align 1
  ret ptr %0
}